target datalayout = "e-m:e-p270:32:32-p271:32:32-p272:64:64-i64:64-i128:128-f80:128-n8:16:32:64-S128"
target triple = "x86_64-pc-linux-gnu"

%struct.H5D_chunk_common_ud_t = type { ptr, ptr, ptr }
%struct.H5O_layout_chunk_t = type { i32, i8, i32, [33 x i32], i32, i32, i64, i64, [33 x i64], [33 x i64], [33 x i64], [33 x i64], %union.anon.0 }
%union.anon.0 = type { %struct.H5O_layout_chunk_earray_t }
%struct.H5O_layout_chunk_earray_t = type { %struct.anon.1, i32, [33 x i32], [33 x i64], [33 x i64] }
%struct.anon.1 = type { i8, i8, i8, i8, i8 }
%struct.H5D_btree_key_t = type { [33 x i64], i32, i32 }

@H5D_init_g = external global i8, align 1
@H5_libterm_g = external global i8, align 1

; Function Attrs: inlinehint nounwind uwtable
define internal i32 @H5VM_vector_cmp_u(i32 noundef %0, ptr noundef %1, ptr noundef %2) #7 {
  %4 = alloca i32, align 4
  %5 = alloca ptr, align 8
  %6 = alloca ptr, align 8
  %7 = alloca i32, align 4
  store i32 %0, ptr %4, align 4, !tbaa !12
  store ptr %1, ptr %5, align 8, !tbaa !51
  store ptr %2, ptr %6, align 8, !tbaa !51
  call void @llvm.lifetime.start.p0(i64 4, ptr %7) #8
  store i32 0, ptr %7, align 4, !tbaa !12
  %8 = load i8, ptr @H5D_init_g, align 1, !tbaa !14, !range !16, !noundef !17
  %9 = trunc i8 %8 to i1
  br i1 %9, label %14, label %10

10:                                               ; preds = %3
  %11 = load i8, ptr @H5_libterm_g, align 1, !tbaa !14, !range !16, !noundef !17
  %12 = trunc i8 %11 to i1
  %13 = xor i1 %12, true
  br label %14

14:                                               ; preds = %10, %3
  %15 = phi i1 [ true, %3 ], [ %13, %10 ]
  %16 = xor i1 %15, true
  %17 = xor i1 %16, true
  %18 = zext i1 %17 to i32
  %19 = sext i32 %18 to i64
  %20 = call i64 @llvm.expect.i64(i64 %19, i64 1)
  %21 = icmp ne i64 %20, 0
  br i1 %21, label %22, label %76

22:                                               ; preds = %14
  %23 = load ptr, ptr %5, align 8, !tbaa !51
  %24 = load ptr, ptr %6, align 8, !tbaa !51
  %25 = icmp eq ptr %23, %24
  br i1 %25, label %26, label %30

26:                                               ; preds = %22
  br label %27

27:                                               ; preds = %26
  store i32 0, ptr %7, align 4, !tbaa !12
  br label %75

28:                                               ; No predecessors!
  br label %29

29:                                               ; preds = %28
  br label %30

30:                                               ; preds = %29, %22
  %31 = load ptr, ptr %5, align 8, !tbaa !51
  %32 = icmp eq ptr %31, null
  br i1 %32, label %33, label %37

33:                                               ; preds = %30
  br label %34

34:                                               ; preds = %33
  store i32 -1, ptr %7, align 4, !tbaa !12
  br label %75

35:                                               ; No predecessors!
  br label %36

36:                                               ; preds = %35
  br label %37

37:                                               ; preds = %36, %30
  %38 = load ptr, ptr %6, align 8, !tbaa !51
  %39 = icmp eq ptr %38, null
  br i1 %39, label %40, label %44

40:                                               ; preds = %37
  br label %41

41:                                               ; preds = %40
  store i32 1, ptr %7, align 4, !tbaa !12
  br label %75

42:                                               ; No predecessors!
  br label %43

43:                                               ; preds = %42
  br label %44

44:                                               ; preds = %43, %37
  br label %45

45:                                               ; preds = %69, %44
  %46 = load i32, ptr %4, align 4, !tbaa !12
  %47 = add i32 %46, -1
  store i32 %47, ptr %4, align 4, !tbaa !12
  %48 = icmp ne i32 %46, 0
  br i1 %48, label %49, label %74

49:                                               ; preds = %45
  %50 = load ptr, ptr %5, align 8, !tbaa !51
  %51 = load i64, ptr %50, align 8, !tbaa !10
  %52 = load ptr, ptr %6, align 8, !tbaa !51
  %53 = load i64, ptr %52, align 8, !tbaa !10
  %54 = icmp ult i64 %51, %53
  br i1 %54, label %55, label %59

55:                                               ; preds = %49
  br label %56

56:                                               ; preds = %55
  store i32 -1, ptr %7, align 4, !tbaa !12
  br label %75

57:                                               ; No predecessors!
  br label %58

58:                                               ; preds = %57
  br label %59

59:                                               ; preds = %58, %49
  %60 = load ptr, ptr %5, align 8, !tbaa !51
  %61 = load i64, ptr %60, align 8, !tbaa !10
  %62 = load ptr, ptr %6, align 8, !tbaa !51
  %63 = load i64, ptr %62, align 8, !tbaa !10
  %64 = icmp ugt i64 %61, %63
  br i1 %64, label %65, label %69

65:                                               ; preds = %59
  br label %66

66:                                               ; preds = %65
  store i32 1, ptr %7, align 4, !tbaa !12
  br label %75

67:                                               ; No predecessors!
  br label %68

68:                                               ; preds = %67
  br label %69

69:                                               ; preds = %68, %59
  %70 = load ptr, ptr %5, align 8, !tbaa !51
  %71 = getelementptr inbounds nuw i64, ptr %70, i32 1
  store ptr %71, ptr %5, align 8, !tbaa !51
  %72 = load ptr, ptr %6, align 8, !tbaa !51
  %73 = getelementptr inbounds nuw i64, ptr %72, i32 1
  store ptr %73, ptr %6, align 8, !tbaa !51
  br label %45, !llvm.loop !106

74:                                               ; preds = %45
  br label %75

75:                                               ; preds = %74, %66, %56, %41, %34, %27
  br label %76

76:                                               ; preds = %75, %14
  %77 = load i32, ptr %7, align 4, !tbaa !12
  call void @llvm.lifetime.end.p0(i64 4, ptr %7) #8
  ret i32 %77
}

; Function Attrs: nounwind uwtable
define internal i32 @H5D__btree_cmp2(ptr noundef %0, ptr noundef %1, ptr noundef %2) #0 {
  %4 = alloca ptr, align 8
  %5 = alloca ptr, align 8
  %6 = alloca ptr, align 8
  %7 = alloca ptr, align 8
  %8 = alloca ptr, align 8
  %9 = alloca ptr, align 8
  %10 = alloca i32, align 4
  store ptr %0, ptr %4, align 8, !tbaa !41
  store ptr %1, ptr %5, align 8, !tbaa !41
  store ptr %2, ptr %6, align 8, !tbaa !41
  call void @llvm.lifetime.start.p0(i64 8, ptr %7) #8
  %11 = load ptr, ptr %4, align 8, !tbaa !41
  store ptr %11, ptr %7, align 8, !tbaa !78
  call void @llvm.lifetime.start.p0(i64 8, ptr %8) #8
  %12 = load ptr, ptr %6, align 8, !tbaa !41
  store ptr %12, ptr %8, align 8, !tbaa !78
  call void @llvm.lifetime.start.p0(i64 8, ptr %9) #8
  %13 = load ptr, ptr %5, align 8, !tbaa !41
  store ptr %13, ptr %9, align 8, !tbaa !47
  call void @llvm.lifetime.start.p0(i64 4, ptr %10) #8
  store i32 -1, ptr %10, align 4, !tbaa !12
  %14 = load i8, ptr @H5D_init_g, align 1, !tbaa !14, !range !16, !noundef !17
  %15 = trunc i8 %14 to i1
  br i1 %15, label %20, label %16

16:                                               ; preds = %3
  %17 = load i8, ptr @H5_libterm_g, align 1, !tbaa !14, !range !16, !noundef !17
  %18 = trunc i8 %17 to i1
  %19 = xor i1 %18, true
  br label %20

20:                                               ; preds = %16, %3
  %21 = phi i1 [ true, %3 ], [ %19, %16 ]
  %22 = xor i1 %21, true
  %23 = xor i1 %22, true
  %24 = zext i1 %23 to i32
  %25 = sext i32 %24 to i64
  %26 = call i64 @llvm.expect.i64(i64 %25, i64 1)
  %27 = icmp ne i64 %26, 0
  br i1 %27, label %28, label %41

28:                                               ; preds = %20
  %29 = load ptr, ptr %9, align 8, !tbaa !47
  %30 = getelementptr inbounds nuw %struct.H5D_chunk_common_ud_t, ptr %29, i32 0, i32 0
  %31 = load ptr, ptr %30, align 8, !tbaa !27
  %32 = getelementptr inbounds nuw %struct.H5O_layout_chunk_t, ptr %31, i32 0, i32 2
  %33 = load i32, ptr %32, align 8, !tbaa !60
  %34 = load ptr, ptr %7, align 8, !tbaa !78
  %35 = getelementptr inbounds nuw %struct.H5D_btree_key_t, ptr %34, i32 0, i32 0
  %36 = getelementptr inbounds [33 x i64], ptr %35, i64 0, i64 0
  %37 = load ptr, ptr %8, align 8, !tbaa !78
  %38 = getelementptr inbounds nuw %struct.H5D_btree_key_t, ptr %37, i32 0, i32 0
  %39 = getelementptr inbounds [33 x i64], ptr %38, i64 0, i64 0
  %40 = call i32 @H5VM_vector_cmp_u(i32 noundef %33, ptr noundef %36, ptr noundef %39)
  store i32 %40, ptr %10, align 4, !tbaa !12
  br label %41

41:                                               ; preds = %28, %20
  %42 = load i32, ptr %10, align 4, !tbaa !12
  call void @llvm.lifetime.end.p0(i64 4, ptr %10) #8
  call void @llvm.lifetime.end.p0(i64 8, ptr %9) #8
  call void @llvm.lifetime.end.p0(i64 8, ptr %8) #8
  call void @llvm.lifetime.end.p0(i64 8, ptr %7) #8
  ret i32 %42
}