; Function Attrs: nofree norecurse nosync nounwind memory(read, inaccessiblemem: none) uwtable
define internal range(i32 -1, 2) i32 @H5D__btree_cmp2(ptr noundef readonly captures(address) %0, ptr noundef readonly captures(none) %1, ptr noundef readonly captures(address) %2) #13 {
  %4 = load i8, ptr @H5D_init_g, align 1, !tbaa !3, !range !7, !noundef !8
  %5 = trunc nuw i8 %4 to i1
  %6 = load i8, ptr @H5_libterm_g, align 1, !range !7
  %7 = trunc nuw i8 %6 to i1
  %8 = xor i1 %7, true
  %9 = select i1 %5, i1 true, i1 %8
  br i1 %9, label %10, label %H5VM_vector_cmp_u.exit, !prof !9

10:                                               ; preds = %3
  %11 = load ptr, ptr %1, align 8, !tbaa !22
  %12 = getelementptr inbounds nuw i8, ptr %11, i64 8
  %13 = load i32, ptr %12, align 8, !tbaa !40
  %not..i = xor i1 %5, true
  %.not18.i = select i1 %not..i, i1 %7, i1 false
  %14 = icmp eq ptr %0, %2
  %or.cond.i = or i1 %14, %.not18.i
  br i1 %or.cond.i, label %H5VM_vector_cmp_u.exit, label %15, !prof !66

15:                                               ; preds = %10
  %16 = icmp eq ptr %0, null
  br i1 %16, label %H5VM_vector_cmp_u.exit, label %17

17:                                               ; preds = %15
  %18 = icmp eq ptr %2, null
  br i1 %18, label %H5VM_vector_cmp_u.exit, label %.preheader.i

.preheader.i:                                     ; preds = %17
  %.not19.i = icmp eq i32 %13, 0
  br i1 %.not19.i, label %H5VM_vector_cmp_u.exit, label %.lr.ph.i

.lr.ph.i:                                         ; preds = %.preheader.i, %25
  %.in.i = phi i32 [ %19, %25 ], [ %13, %.preheader.i ]
  %.01121.i = phi ptr [ %27, %25 ], [ %2, %.preheader.i ]
  %.01220.i = phi ptr [ %26, %25 ], [ %0, %.preheader.i ]
  %19 = add i32 %.in.i, -1
  %20 = load i64, ptr %.01220.i, align 8, !tbaa !20
  %21 = load i64, ptr %.01121.i, align 8, !tbaa !20
  %22 = icmp ult i64 %20, %21
  br i1 %22, label %H5VM_vector_cmp_u.exit, label %23

23:                                               ; preds = %.lr.ph.i
  %24 = icmp ugt i64 %20, %21
  br i1 %24, label %H5VM_vector_cmp_u.exit, label %25

25:                                               ; preds = %23
  %26 = getelementptr inbounds nuw i8, ptr %.01220.i, i64 8
  %27 = getelementptr inbounds nuw i8, ptr %.01121.i, i64 8
  %.not.i = icmp eq i32 %19, 0
  br i1 %.not.i, label %H5VM_vector_cmp_u.exit, label %.lr.ph.i, !llvm.loop !67

H5VM_vector_cmp_u.exit:                           ; preds = %25, %23, %.lr.ph.i, %.preheader.i, %17, %15, %10, %3
  %.0 = phi i32 [ -1, %3 ], [ 0, %10 ], [ -1, %15 ], [ 1, %17 ], [ 0, %.preheader.i ], [ 1, %23 ], [ -1, %.lr.ph.i ], [ 0, %25 ]
  ret i32 %.0
}